Certificate:
    Data:
        Version: 3 (0x2)
        Serial Number:
            05:95:03:68:8f:5e:98:d6:cf:5d:17:69:80:5a:a9:21
        Signature Algorithm: sha256WithRSAEncryption
        Issuer: C=US, O=DigiCert Inc, CN=DigiCert Global G2 TLS RSA SHA256 2020 CA1
        Validity
            Not Before: Sep  3 00:00:00 2025 GMT
            Not After : Dec  2 23:59:59 2025 GMT
        Subject: C=US, ST=California, L=Menlo Park, O=Meta Platforms, Inc., CN=*.facebook.com
        Subject Public Key Info:
            Public Key Algorithm: id-ecPublicKey
                Public-Key: (256 bit)
                pub:
                    04:09:b2:ab:a1:41:51:c0:57:da:03:bd:fc:ed:0b:
                    2d:10:78:39:7a:0b:8f:cc:04:57:88:95:ae:e7:4b:
                    45:56:e2:e1:30:de:48:a9:18:8b:8e:16:07:ad:20:
                    10:d1:bd:f5:84:96:83:a3:d1:85:3e:7c:59:17:5c:
                    7e:03:3c:37:d1
                ASN1 OID: prime256v1
                NIST CURVE: P-256
        X509v3 extensions:
            X509v3 Authority Key Identifier: 
                74:85:80:C0:66:C7:DF:37:DE:CF:BD:29:37:AA:03:1D:BE:ED:CD:17
            X509v3 Subject Key Identifier: 
                E7:56:86:34:01:70:C2:CB:EC:59:ED:2A:AD:ED:5F:79:78:B2:EB:0E
            X509v3 Subject Alternative Name: 
                DNS:*.facebook.com, DNS:*.facebook.net, DNS:*.fbcdn.net, DNS:*.fbsbx.com, DNS:*.m.facebook.com, DNS:*.messenger.com, DNS:*.xx.fbcdn.net, DNS:*.xy.fbcdn.net, DNS:*.xz.fbcdn.net, DNS:facebook.com, DNS:messenger.com
            X509v3 Certificate Policies: 
                Policy: 2.23.140.1.2.2
                  CPS: http://www.digicert.com/CPS
            X509v3 Key Usage: critical
                Digital Signature, Key Agreement
            X509v3 Extended Key Usage: 
                TLS Web Server Authentication, TLS Web Client Authentication
            X509v3 CRL Distribution Points: 
                Full Name:
                  URI:http://crl3.digicert.com/DigiCertGlobalG2TLSRSASHA2562020CA1-1.crl

                Full Name:
                  URI:http://crl4.digicert.com/DigiCertGlobalG2TLSRSASHA2562020CA1-1.crl

            Authority Information Access: 
                OCSP - URI:http://ocsp.digicert.com
                CA Issuers - URI:http://cacerts.digicert.com/DigiCertGlobalG2TLSRSASHA2562020CA1-1.crt
            X509v3 Basic Constraints: critical
                CA:FALSE
            CT Precertificate SCTs: 
                Signed Certificate Timestamp:
                    Version   : v1 (0x0)
                    Log ID    : DD:DC:CA:34:95:D7:E1:16:05:E7:95:32:FA:C7:9F:F8:
                                3D:1C:50:DF:DB:00:3A:14:12:76:0A:2C:AC:BB:C8:2A
                    Timestamp : Sep  3 00:20:11.210 2025 GMT
                    Extensions: none
                    Signature : ecdsa-with-SHA256
                                30:45:02:20:2C:70:88:84:31:C5:0A:E2:2C:EB:E3:73:
                                AE:2C:9B:9A:E0:96:A9:D3:B6:34:89:4B:3B:86:8C:C7:
                                31:AD:82:23:02:21:00:E9:B0:F1:0F:D0:C5:6C:C7:B3:
                                13:0F:FC:40:57:A8:D2:06:7A:62:C2:5F:AA:17:AC:7C:
                                2D:68:E7:94:B4:6C:1F
                Signed Certificate Timestamp:
                    Version   : v1 (0x0)
                    Log ID    : ED:3C:4B:D6:E8:06:C2:A4:A2:00:57:DB:CB:24:E2:38:
                                01:DF:51:2F:ED:C4:86:C5:70:0F:20:DD:B7:3E:3F:E0
                    Timestamp : Sep  3 00:20:11.195 2025 GMT
                    Extensions: none
                    Signature : ecdsa-with-SHA256
                                30:45:02:21:00:F0:46:01:EA:B9:2B:A5:5E:DC:29:E3:
                                E1:E6:CD:0C:E4:EB:BA:8F:63:16:11:2D:F6:93:EC:77:
                                FD:92:D6:C1:93:02:20:2B:39:7C:AF:2C:05:E4:48:33:
                                03:5A:D0:5C:70:8B:CB:9B:F6:84:AF:5C:A7:B8:E2:A2:
                                4E:AB:46:B6:74:8D:D2
                Signed Certificate Timestamp:
                    Version   : v1 (0x0)
                    Log ID    : A4:42:C5:06:49:60:61:54:8F:0F:D4:EA:9C:FB:7A:2D:
                                26:45:4D:87:A9:7F:2F:DF:45:59:F6:27:4F:3A:84:54
                    Timestamp : Sep  3 00:20:11.214 2025 GMT
                    Extensions: none
                    Signature : ecdsa-with-SHA256
                                30:45:02:20:6E:54:44:46:BA:11:69:0C:EE:08:78:71:
                                4F:8A:AC:FB:88:B1:99:C8:83:F1:D1:D5:DB:35:3B:9A:
                                6C:EE:B4:E7:02:21:00:DC:62:9F:30:BE:B5:87:49:94:
                                80:E6:D5:0D:FC:CE:F0:89:CD:74:BE:20:4F:B4:25:76:
                                A2:CE:D9:1B:44:6E:F6
    Signature Algorithm: sha256WithRSAEncryption
    Signature Value:
        61:0b:fa:bf:32:d0:13:3d:a6:3c:84:b1:14:e8:0b:32:09:55:
        2f:3d:c9:91:62:07:a0:27:99:1d:12:e9:64:c6:97:d0:8e:db:
        d2:db:d9:ab:a7:59:ec:2c:17:ac:53:5d:81:f8:20:99:2c:3c:
        91:db:2e:0d:86:0c:74:ff:8a:0d:fc:b8:77:88:0e:cf:53:83:
        8f:80:9c:79:ee:69:f3:c1:9e:a0:ea:93:a3:0d:0a:2e:91:e9:
        7c:23:fd:82:e1:77:ed:76:d9:cb:a0:cf:c9:83:ca:69:24:6b:
        6f:5a:d0:44:ec:a4:21:ea:70:20:0f:8d:68:5d:c5:5b:91:fd:
        af:0c:b2:ef:8a:3c:5f:fd:8a:80:2d:65:7f:3b:77:18:87:f8:
        03:e5:42:e9:b1:95:a4:0c:8c:a3:47:65:35:0a:42:83:cb:59:
        aa:c5:8f:48:ce:ec:06:e7:b0:0b:11:43:e6:c0:ea:54:29:75:
        d9:cb:76:80:20:f6:27:96:e2:0e:42:48:6a:b3:be:d4:f1:40:
        09:2d:56:bb:65:a6:4d:eb:0e:23:cc:ef:73:cc:8a:56:95:10:
        82:60:40:a8:fb:9a:7b:b9:24:2e:46:8d:bb:d5:08:64:d3:2b:
        ce:cb:f4:fe:b7:30:07:09:bc:66:c9:14:dc:f3:6e:e3:75:22:
        f9:b5:67:6c
-----BEGIN CERTIFICATE-----
MIIGsDCCBZigAwIBAgIQBZUDaI9emNbPXRdpgFqpITANBgkqhkiG9w0BAQsFADBZ
MQswCQYDVQQGEwJVUzEVMBMGA1UEChMMRGlnaUNlcnQgSW5jMTMwMQYDVQQDEypE
aWdpQ2VydCBHbG9iYWwgRzIgVExTIFJTQSBTSEEyNTYgMjAyMCBDQTEwHhcNMjUw
OTAzMDAwMDAwWhcNMjUxMjAyMjM1OTU5WjBvMQswCQYDVQQGEwJVUzETMBEGA1UE
CBMKQ2FsaWZvcm5pYTETMBEGA1UEBxMKTWVubG8gUGFyazEdMBsGA1UEChMUTWV0
YSBQbGF0Zm9ybXMsIEluYy4xFzAVBgNVBAMMDiouZmFjZWJvb2suY29tMFkwEwYH
KoZIzj0CAQYIKoZIzj0DAQcDQgAECbKroUFRwFfaA7387QstEHg5eguPzARXiJWu
50tFVuLhMN5IqRiLjhYHrSAQ0b31hJaDo9GFPnxZF1x+Azw30aOCBCcwggQjMB8G
A1UdIwQYMBaAFHSFgMBmx9833s+9KTeqAx2+7c0XMB0GA1UdDgQWBBTnVoY0AXDC
y+xZ7Sqt7V95eLLrDjCBtQYDVR0RBIGtMIGqgg4qLmZhY2Vib29rLmNvbYIOKi5m
YWNlYm9vay5uZXSCCyouZmJjZG4ubmV0ggsqLmZic2J4LmNvbYIQKi5tLmZhY2Vi
b29rLmNvbYIPKi5tZXNzZW5nZXIuY29tgg4qLnh4LmZiY2RuLm5ldIIOKi54eS5m
YmNkbi5uZXSCDioueHouZmJjZG4ubmV0ggxmYWNlYm9vay5jb22CDW1lc3Nlbmdl
ci5jb20wPgYDVR0gBDcwNTAzBgZngQwBAgIwKTAnBggrBgEFBQcCARYbaHR0cDov
L3d3dy5kaWdpY2VydC5jb20vQ1BTMA4GA1UdDwEB/wQEAwIDiDAdBgNVHSUEFjAU
BggrBgEFBQcDAQYIKwYBBQUHAwIwgZ8GA1UdHwSBlzCBlDBIoEagRIZCaHR0cDov
L2NybDMuZGlnaWNlcnQuY29tL0RpZ2lDZXJ0R2xvYmFsRzJUTFNSU0FTSEEyNTYy
MDIwQ0ExLTEuY3JsMEigRqBEhkJodHRwOi8vY3JsNC5kaWdpY2VydC5jb20vRGln
aUNlcnRHbG9iYWxHMlRMU1JTQVNIQTI1NjIwMjBDQTEtMS5jcmwwgYcGCCsGAQUF
BwEBBHsweTAkBggrBgEFBQcwAYYYaHR0cDovL29jc3AuZGlnaWNlcnQuY29tMFEG
CCsGAQUFBzAChkVodHRwOi8vY2FjZXJ0cy5kaWdpY2VydC5jb20vRGlnaUNlcnRH
bG9iYWxHMlRMU1JTQVNIQTI1NjIwMjBDQTEtMS5jcnQwDAYDVR0TAQH/BAIwADCC
AX4GCisGAQQB1nkCBAIEggFuBIIBagFoAHYA3dzKNJXX4RYF55Uy+sef+D0cUN/b
ADoUEnYKLKy7yCoAAAGZDPIDSgAABAMARzBFAiAscIiEMcUK4izr43OuLJua4Jap
07Y0iUs7hozHMa2CIwIhAOmw8Q/QxWzHsxMP/EBXqNIGemLCX6oXrHwtaOeUtGwf
AHYA7TxL1ugGwqSiAFfbyyTiOAHfUS/txIbFcA8g3bc+P+AAAAGZDPIDOwAABAMA
RzBFAiEA8EYB6rkrpV7cKePh5s0M5Ou6j2MWES32k+x3/ZLWwZMCICs5fK8sBeRI
MwNa0Fxwi8ub9oSvXKe44qJOq0a2dI3SAHYApELFBklgYVSPD9TqnPt6LSZFTYep
fy/fRVn2J086hFQAAAGZDPIDTgAABAMARzBFAiBuVERGuhFpDO4IeHFPiqz7iLGZ
yIPx0dXbNTuabO605wIhANxinzC+tYdJlIDm1Q38zvCJzXS+IE+0JXaiztkbRG72
MA0GCSqGSIb3DQEBCwUAA4IBAQBhC/q/MtATPaY8hLEU6AsyCVUvPcmRYgegJ5kd
EulkxpfQjtvS29mrp1nsLBesU12B+CCZLDyR2y4Nhgx0/4oN/Lh3iA7PU4OPgJx5
7mnzwZ6g6pOjDQoukel8I/2C4XftdtnLoM/Jg8ppJGtvWtBE7KQh6nAgD41oXcVb
kf2vDLLvijxf/YqALWV/O3cYh/gD5ULpsZWkDIyjR2U1CkKDy1mqxY9IzuwG57AL
EUPmwOpUKXXZy3aAIPYnluIOQkhqs77U8UAJLVa7ZaZN6w4jzO9zzIpWlRCCYECo
+5p7uSQuRo271Qhk0yvOy/T+tzAHCbxmyRTc827jdSL5tWds
-----END CERTIFICATE-----
