Certificate:
    Data:
        Version: 3 (0x2)
        Serial Number:
            06:6a:c1:b6:2a:ed:19:bc:8e:8d:ec:a4:43:7e:4c:41
        Signature Algorithm: sha256WithRSAEncryption
        Issuer: C=US, O=DigiCert Inc, CN=DigiCert Global G2 TLS RSA SHA256 2020 CA1
        Validity
            Not Before: Aug  6 00:00:00 2025 GMT
            Not After : Nov  4 23:59:59 2025 GMT
        Subject: C=US, ST=California, L=Menlo Park, O=Meta Platforms, Inc., CN=*.facebook.com
        Subject Public Key Info:
            Public Key Algorithm: id-ecPublicKey
                Public-Key: (256 bit)
                pub:
                    04:03:e7:4d:9d:cf:8e:e1:22:20:23:8a:f9:4e:04:
                    c2:13:c3:9b:1f:33:95:e7:34:f8:03:a5:3c:d8:6a:
                    4c:4f:c8:ca:06:cf:06:1c:31:7f:db:dc:ff:37:22:
                    07:25:13:ca:8b:d4:7c:0f:99:11:31:91:44:1f:11:
                    bc:55:01:33:02
                ASN1 OID: prime256v1
                NIST CURVE: P-256
        X509v3 extensions:
            X509v3 Authority Key Identifier: 
                74:85:80:C0:66:C7:DF:37:DE:CF:BD:29:37:AA:03:1D:BE:ED:CD:17
            X509v3 Subject Key Identifier: 
                7A:1C:D1:D3:FD:20:27:02:92:8E:F4:F9:05:D2:81:6F:BD:33:59:EA
            X509v3 Subject Alternative Name: 
                DNS:*.facebook.com, DNS:*.facebook.net, DNS:*.fbcdn.net, DNS:*.fbsbx.com, DNS:*.m.facebook.com, DNS:*.messenger.com, DNS:*.xx.fbcdn.net, DNS:*.xy.fbcdn.net, DNS:*.xz.fbcdn.net, DNS:facebook.com, DNS:messenger.com
            X509v3 Certificate Policies: 
                Policy: 2.23.140.1.2.2
                  CPS: http://www.digicert.com/CPS
            X509v3 Key Usage: critical
                Digital Signature, Key Agreement
            X509v3 Extended Key Usage: 
                TLS Web Server Authentication, TLS Web Client Authentication
            X509v3 CRL Distribution Points: 
                Full Name:
                  URI:http://crl3.digicert.com/DigiCertGlobalG2TLSRSASHA2562020CA1-1.crl

                Full Name:
                  URI:http://crl4.digicert.com/DigiCertGlobalG2TLSRSASHA2562020CA1-1.crl

            Authority Information Access: 
                OCSP - URI:http://ocsp.digicert.com
                CA Issuers - URI:http://cacerts.digicert.com/DigiCertGlobalG2TLSRSASHA2562020CA1-1.crt
            X509v3 Basic Constraints: critical
                CA:FALSE
            CT Precertificate SCTs: 
                Signed Certificate Timestamp:
                    Version   : v1 (0x0)
                    Log ID    : 12:F1:4E:34:BD:53:72:4C:84:06:19:C3:8F:3F:7A:13:
                                F8:E7:B5:62:87:88:9C:6D:30:05:84:EB:E5:86:26:3A
                    Timestamp : Aug  6 00:27:20.991 2025 GMT
                    Extensions: none
                    Signature : ecdsa-with-SHA256
                                30:44:02:20:43:1A:B0:FF:5B:EF:4A:A9:8A:9A:E2:E7:
                                11:B0:B4:02:D3:35:86:BE:30:EB:7F:EF:9D:94:75:85:
                                68:0A:DC:CE:02:20:14:D3:65:55:FB:CC:FB:0C:0F:D7:
                                A7:23:EC:F1:3B:C7:92:F2:ED:4D:3C:11:DA:94:71:76:
                                C0:95:D0:BC:85:04
                Signed Certificate Timestamp:
                    Version   : v1 (0x0)
                    Log ID    : CC:FB:0F:6A:85:71:09:65:FE:95:9B:53:CE:E9:B2:7C:
                                22:E9:85:5C:0D:97:8D:B6:A9:7E:54:C0:FE:4C:0D:B0
                    Timestamp : Aug  6 00:27:21.020 2025 GMT
                    Extensions: none
                    Signature : ecdsa-with-SHA256
                                30:45:02:21:00:BE:DD:70:DE:44:A1:8C:CE:69:83:62:
                                69:3A:35:3D:FF:FE:9D:44:61:A7:D9:8C:43:39:36:0D:
                                9E:10:09:48:7B:02:20:70:B2:F5:37:A5:AE:CC:02:54:
                                4E:28:0E:5B:DB:9D:1C:8D:CB:D5:1D:5B:13:C6:4B:38:
                                2B:63:3B:01:F1:45:9A
                Signed Certificate Timestamp:
                    Version   : v1 (0x0)
                    Log ID    : DD:DC:CA:34:95:D7:E1:16:05:E7:95:32:FA:C7:9F:F8:
                                3D:1C:50:DF:DB:00:3A:14:12:76:0A:2C:AC:BB:C8:2A
                    Timestamp : Aug  6 00:27:21.050 2025 GMT
                    Extensions: none
                    Signature : ecdsa-with-SHA256
                                30:45:02:20:64:C9:18:C8:76:01:3D:A2:C2:05:FE:E5:
                                B3:0A:28:E0:81:91:81:90:BA:85:68:CD:B4:9E:D5:79:
                                AD:33:B2:FB:02:21:00:DD:AC:68:7C:05:D5:D3:BD:34:
                                64:ED:B2:74:C1:55:D6:08:E9:B1:9B:33:AD:68:13:1D:
                                E0:95:96:2E:88:D5:4C
    Signature Algorithm: sha256WithRSAEncryption
    Signature Value:
        86:2d:7a:28:20:5c:ca:b3:6f:24:c9:43:77:ae:f0:67:80:2c:
        f5:c5:7c:b9:10:43:2f:66:22:55:d5:84:07:03:7b:61:67:1c:
        aa:4b:6f:81:59:da:f7:23:ff:3a:0e:04:f0:0c:e9:90:a5:d1:
        d9:79:53:97:ce:09:1d:76:c6:d3:f1:22:66:c7:54:15:a3:b3:
        c9:98:6a:06:27:d4:e4:33:b0:d7:fa:6b:f6:c3:00:a4:42:91:
        b8:ae:b4:d6:d4:eb:cf:46:43:eb:1e:4e:ac:a8:07:7a:a2:40:
        5f:51:c1:24:48:ee:16:ce:9b:83:81:f7:39:2f:2f:f5:e5:5a:
        18:c1:54:1e:fa:0f:67:c7:3a:0f:83:43:a7:e3:59:b1:dd:1d:
        66:0f:49:a8:7e:b9:30:fa:ee:4a:fe:23:32:3a:f2:b2:e9:9f:
        f8:21:64:d8:a1:4b:84:4c:bd:ba:41:e4:a0:7a:ea:53:69:a0:
        d9:05:1e:84:dd:e8:e0:8a:82:e4:ba:fd:2d:73:f5:df:86:ba:
        90:3d:16:ff:8a:39:52:a1:33:f7:18:62:d3:ad:24:21:1f:e8:
        b7:5f:2b:c6:c5:9b:a0:6a:95:9b:6a:83:4d:dc:4a:02:9a:7d:
        9a:b9:dc:ac:d4:69:13:a6:e3:f3:c6:8f:96:e7:84:9c:ae:7a:
        57:fa:27:e1
-----BEGIN CERTIFICATE-----
MIIGrzCCBZegAwIBAgIQBmrBtirtGbyOjeykQ35MQTANBgkqhkiG9w0BAQsFADBZ
MQswCQYDVQQGEwJVUzEVMBMGA1UEChMMRGlnaUNlcnQgSW5jMTMwMQYDVQQDEypE
aWdpQ2VydCBHbG9iYWwgRzIgVExTIFJTQSBTSEEyNTYgMjAyMCBDQTEwHhcNMjUw
ODA2MDAwMDAwWhcNMjUxMTA0MjM1OTU5WjBvMQswCQYDVQQGEwJVUzETMBEGA1UE
CBMKQ2FsaWZvcm5pYTETMBEGA1UEBxMKTWVubG8gUGFyazEdMBsGA1UEChMUTWV0
YSBQbGF0Zm9ybXMsIEluYy4xFzAVBgNVBAMMDiouZmFjZWJvb2suY29tMFkwEwYH
KoZIzj0CAQYIKoZIzj0DAQcDQgAEA+dNnc+O4SIgI4r5TgTCE8ObHzOV5zT4A6U8
2GpMT8jKBs8GHDF/29z/NyIHJRPKi9R8D5kRMZFEHxG8VQEzAqOCBCYwggQiMB8G
A1UdIwQYMBaAFHSFgMBmx9833s+9KTeqAx2+7c0XMB0GA1UdDgQWBBR6HNHT/SAn
ApKO9PkF0oFvvTNZ6jCBtQYDVR0RBIGtMIGqgg4qLmZhY2Vib29rLmNvbYIOKi5m
YWNlYm9vay5uZXSCCyouZmJjZG4ubmV0ggsqLmZic2J4LmNvbYIQKi5tLmZhY2Vi
b29rLmNvbYIPKi5tZXNzZW5nZXIuY29tgg4qLnh4LmZiY2RuLm5ldIIOKi54eS5m
YmNkbi5uZXSCDioueHouZmJjZG4ubmV0ggxmYWNlYm9vay5jb22CDW1lc3Nlbmdl
ci5jb20wPgYDVR0gBDcwNTAzBgZngQwBAgIwKTAnBggrBgEFBQcCARYbaHR0cDov
L3d3dy5kaWdpY2VydC5jb20vQ1BTMA4GA1UdDwEB/wQEAwIDiDAdBgNVHSUEFjAU
BggrBgEFBQcDAQYIKwYBBQUHAwIwgZ8GA1UdHwSBlzCBlDBIoEagRIZCaHR0cDov
L2NybDMuZGlnaWNlcnQuY29tL0RpZ2lDZXJ0R2xvYmFsRzJUTFNSU0FTSEEyNTYy
MDIwQ0ExLTEuY3JsMEigRqBEhkJodHRwOi8vY3JsNC5kaWdpY2VydC5jb20vRGln
aUNlcnRHbG9iYWxHMlRMU1JTQVNIQTI1NjIwMjBDQTEtMS5jcmwwgYcGCCsGAQUF
BwEBBHsweTAkBggrBgEFBQcwAYYYaHR0cDovL29jc3AuZGlnaWNlcnQuY29tMFEG
CCsGAQUFBzAChkVodHRwOi8vY2FjZXJ0cy5kaWdpY2VydC5jb20vRGlnaUNlcnRH
bG9iYWxHMlRMU1JTQVNIQTI1NjIwMjBDQTEtMS5jcnQwDAYDVR0TAQH/BAIwADCC
AX0GCisGAQQB1nkCBAIEggFtBIIBaQFnAHUAEvFONL1TckyEBhnDjz96E/jntWKH
iJxtMAWE6+WGJjoAAAGYfMaCHwAABAMARjBEAiBDGrD/W+9KqYqa4ucRsLQC0zWG
vjDrf++dlHWFaArczgIgFNNlVfvM+wwP16cj7PE7x5Ly7U08EdqUcXbAldC8hQQA
dgDM+w9qhXEJZf6Vm1PO6bJ8IumFXA2XjbapflTA/kwNsAAAAZh8xoI8AAAEAwBH
MEUCIQC+3XDeRKGMzmmDYmk6NT3//p1EYafZjEM5Ng2eEAlIewIgcLL1N6WuzAJU
TigOW9udHI3L1R1bE8ZLOCtjOwHxRZoAdgDd3Mo0ldfhFgXnlTL6x5/4PRxQ39sA
OhQSdgosrLvIKgAAAZh8xoJaAAAEAwBHMEUCIGTJGMh2AT2iwgX+5bMKKOCBkYGQ
uoVozbSe1XmtM7L7AiEA3axofAXV0700ZO2ydMFV1gjpsZszrWgTHeCVli6I1Uww
DQYJKoZIhvcNAQELBQADggEBAIYteiggXMqzbyTJQ3eu8GeALPXFfLkQQy9mIlXV
hAcDe2FnHKpLb4FZ2vcj/zoOBPAM6ZCl0dl5U5fOCR12xtPxImbHVBWjs8mYagYn
1OQzsNf6a/bDAKRCkbiutNbU689GQ+seTqyoB3qiQF9RwSRI7hbOm4OB9zkvL/Xl
WhjBVB76D2fHOg+DQ6fjWbHdHWYPSah+uTD67kr+IzI68rLpn/ghZNihS4RMvbpB
5KB66lNpoNkFHoTd6OCKguS6/S1z9d+GupA9Fv+KOVKhM/cYYtOtJCEf6LdfK8bF
m6BqlZtqg03cSgKafZq53KzUaROm4/PGj5bnhJyuelf6J+E=
-----END CERTIFICATE-----
