Certificate:
    Data:
        Version: 3 (0x2)
        Serial Number:
            84:af:1f:aa:b1:c3:b5:7b:0d:7c:b3:c3:0e:07:33:7b
        Signature Algorithm: ecdsa-with-SHA256
        Issuer: C=US, O=Google Trust Services, CN=WE1
        Validity
            Not Before: Oct 11 09:34:59 2025 GMT
            Not After : Jan  9 10:33:35 2026 GMT
        Subject: CN=fifaaddict.com
        Subject Public Key Info:
            Public Key Algorithm: id-ecPublicKey
                Public-Key: (256 bit)
                pub:
                    04:e5:d9:46:7d:15:8e:cf:f6:5c:0a:5c:7a:af:e0:
                    11:93:c3:b3:7d:46:63:c8:df:1c:2c:40:f7:87:9c:
                    0d:ee:2f:a5:a5:96:42:51:8e:03:30:5f:1b:8d:5c:
                    57:7e:3f:38:30:d7:83:cb:99:2d:19:5b:9b:da:87:
                    fe:4f:a2:12:25
                ASN1 OID: prime256v1
                NIST CURVE: P-256
        X509v3 extensions:
            X509v3 Key Usage: critical
                Digital Signature
            X509v3 Extended Key Usage: 
                TLS Web Server Authentication
            X509v3 Basic Constraints: critical
                CA:FALSE
            X509v3 Subject Key Identifier: 
                9F:85:47:33:1D:03:F4:47:48:95:B3:47:22:13:27:E1:42:12:07:32
            X509v3 Authority Key Identifier: 
                90:77:92:35:67:C4:FF:A8:CC:A9:E6:7B:D9:80:79:7B:CC:93:F9:38
            Authority Information Access: 
                OCSP - URI:http://o.pki.goog/s/we1/hK8
                CA Issuers - URI:http://i.pki.goog/we1.crt
            X509v3 Subject Alternative Name: 
                DNS:fifaaddict.com, DNS:*.fifaaddict.com
            X509v3 Certificate Policies: 
                Policy: 2.23.140.1.2.1
            X509v3 CRL Distribution Points: 
                Full Name:
                  URI:http://c.pki.goog/we1/o1fiiaEFTlk.crl

            CT Precertificate SCTs: 
                Signed Certificate Timestamp:
                    Version   : v1 (0x0)
                    Log ID    : 19:86:D4:C7:28:AA:6F:FE:BA:03:6F:78:2A:4D:01:91:
                                AA:CE:2D:72:31:0F:AE:CE:5D:70:41:2D:25:4C:C7:D4
                    Timestamp : Oct 11 10:35:01.713 2025 GMT
                    Extensions: none
                    Signature : ecdsa-with-SHA256
                                30:45:02:21:00:B7:12:58:C0:42:0B:84:9B:5E:1A:8E:
                                1D:A5:2E:57:1E:90:03:1E:03:03:8E:7F:67:03:AC:47:
                                EB:E1:6C:0A:B2:02:20:1F:21:DF:FB:94:14:29:AC:55:
                                FD:D1:29:79:FB:1A:39:F4:20:CE:5C:F6:A1:C9:1C:29:
                                44:65:E2:30:C4:F2:15
                Signed Certificate Timestamp:
                    Version   : v1 (0x0)
                    Log ID    : 0E:57:94:BC:F3:AE:A9:3E:33:1B:2C:99:07:B3:F7:90:
                                DF:9B:C2:3D:71:32:25:DD:21:A9:25:AC:61:C5:4E:21
                    Timestamp : Oct 11 10:35:00.450 2025 GMT
                    Extensions: none
                    Signature : ecdsa-with-SHA256
                                30:45:02:21:00:D0:09:FD:4A:AC:D5:90:97:54:B4:5B:
                                DE:23:4A:3A:65:D4:B4:DD:EC:EA:F5:58:D6:7E:E7:E7:
                                B6:0E:05:2D:D5:02:20:64:02:C6:7F:14:51:8C:23:03:
                                D1:F6:E8:20:88:B3:01:F6:CC:05:35:A7:C8:5C:39:CE:
                                38:29:30:CC:1E:96:A8
    Signature Algorithm: ecdsa-with-SHA256
    Signature Value:
        30:44:02:20:3e:60:8e:d0:25:cc:52:db:9d:80:0a:12:2c:2b:
        f1:09:c6:e8:52:71:ba:c2:db:4d:e9:a5:00:5d:7f:9d:48:73:
        02:20:46:bd:a3:64:4f:a1:9e:23:12:10:45:ee:05:91:a5:12:
        a7:80:10:9b:0d:b8:fc:d3:54:e6:79:00:df:4e:de:a0
-----BEGIN CERTIFICATE-----
MIIDrTCCA1SgAwIBAgIRAISvH6qxw7V7DXyzww4HM3swCgYIKoZIzj0EAwIwOzEL
MAkGA1UEBhMCVVMxHjAcBgNVBAoTFUdvb2dsZSBUcnVzdCBTZXJ2aWNlczEMMAoG
A1UEAxMDV0UxMB4XDTI1MTAxMTA5MzQ1OVoXDTI2MDEwOTEwMzMzNVowGTEXMBUG
A1UEAxMOZmlmYWFkZGljdC5jb20wWTATBgcqhkjOPQIBBggqhkjOPQMBBwNCAATl
2UZ9FY7P9lwKXHqv4BGTw7N9RmPI3xwsQPeHnA3uL6WllkJRjgMwXxuNXFd+Pzgw
14PLmS0ZW5vah/5PohIlo4ICWTCCAlUwDgYDVR0PAQH/BAQDAgeAMBMGA1UdJQQM
MAoGCCsGAQUFBwMBMAwGA1UdEwEB/wQCMAAwHQYDVR0OBBYEFJ+FRzMdA/RHSJWz
RyITJ+FCEgcyMB8GA1UdIwQYMBaAFJB3kjVnxP+ozKnme9mAeXvMk/k4MF4GCCsG
AQUFBwEBBFIwUDAnBggrBgEFBQcwAYYbaHR0cDovL28ucGtpLmdvb2cvcy93ZTEv
aEs4MCUGCCsGAQUFBzAChhlodHRwOi8vaS5wa2kuZ29vZy93ZTEuY3J0MCsGA1Ud
EQQkMCKCDmZpZmFhZGRpY3QuY29tghAqLmZpZmFhZGRpY3QuY29tMBMGA1UdIAQM
MAowCAYGZ4EMAQIBMDYGA1UdHwQvMC0wK6ApoCeGJWh0dHA6Ly9jLnBraS5nb29n
L3dlMS9vMWZpaWFFRlRsay5jcmwwggEEBgorBgEEAdZ5AgQCBIH1BIHyAPAAdgAZ
htTHKKpv/roDb3gqTQGRqs4tcjEPrs5dcEEtJUzH1AAAAZnS1pLRAAAEAwBHMEUC
IQC3EljAQguEm14ajh2lLlcekAMeAwOOf2cDrEfr4WwKsgIgHyHf+5QUKaxV/dEp
efsaOfQgzlz2ockcKURl4jDE8hUAdgAOV5S8866pPjMbLJkHs/eQ35vCPXEyJd0h
qSWsYcVOIQAAAZnS1o3iAAAEAwBHMEUCIQDQCf1KrNWQl1S0W94jSjpl1LTd7Or1
WNZ+5+e2DgUt1QIgZALGfxRRjCMD0fboIIizAfbMBTWnyFw5zjgpMMwelqgwCgYI
KoZIzj0EAwIDRwAwRAIgPmCO0CXMUtudgAoSLCvxCcboUnG6wttN6aUAXX+dSHMC
IEa9o2RPoZ4jEhBF7gWRpRKngBCbDbj801TmeQDfTt6g
-----END CERTIFICATE-----
