Certificate:
    Data:
        Version: 3 (0x2)
        Serial Number:
            3a:c8:f0:9e:01:34:b6:bb:01:96:68:ef
        Signature Algorithm: sha256WithRSAEncryption
        Issuer: C=BE, O=GlobalSign nv-sa, CN=GlobalSign RSA OV SSL CA 2018
        Validity
            Not Before: Oct 19 05:27:05 2025 GMT
            Not After : Oct 24 02:46:32 2026 GMT
        Subject: C=VN, ST=Ha Noi, L=Ha Noi, O=JOINT STOCK COMMERCIAL BANK FOR FOREIGN TRADE OF VIETNAM, CN=*.vietcombank.com.vn
        Subject Public Key Info:
            Public Key Algorithm: rsaEncryption
                Public-Key: (2048 bit)
                Modulus:
                    00:94:c1:9d:6d:69:e6:3d:e9:bb:d7:c3:37:40:ea:
                    27:b7:ab:d2:bb:0e:f4:05:32:15:c8:4b:f0:52:e5:
                    63:98:e6:b9:e2:84:49:28:80:a6:60:d0:59:19:7f:
                    56:8e:c9:70:45:8f:f9:db:9d:db:d1:76:90:29:3c:
                    e6:01:f9:67:5a:17:10:bb:5e:26:a6:be:de:8b:89:
                    14:63:05:b4:40:c8:4c:07:e8:e8:b9:6f:55:d2:87:
                    8c:5f:c5:d0:25:ea:6c:92:a6:8e:a5:3e:51:f6:32:
                    10:21:b1:74:c7:38:a7:08:ad:e5:a0:00:50:59:86:
                    77:52:c9:0d:c7:bf:53:d3:7c:ad:62:77:db:c2:47:
                    9e:a0:20:e7:63:22:d1:4a:4a:f9:f3:80:bd:8f:c2:
                    c2:e0:11:78:30:ea:87:ac:97:4b:34:12:33:61:c0:
                    a5:76:0c:59:81:03:06:0a:73:86:82:bb:96:5a:17:
                    6c:b2:03:79:51:b5:51:05:41:b8:84:8b:b2:f6:00:
                    8a:01:ca:92:e2:be:ae:7e:fc:86:33:5e:42:f2:77:
                    fe:b0:1a:30:9d:c2:ce:52:4c:d5:d8:98:eb:f6:93:
                    f4:20:39:d5:b0:e6:fc:ec:fc:98:21:7a:c2:f6:c5:
                    16:19:45:f3:aa:e5:d3:95:11:9c:1f:07:68:1f:a1:
                    3d:53
                Exponent: 65537 (0x10001)
        X509v3 extensions:
            X509v3 Key Usage: critical
                Digital Signature, Key Encipherment
            X509v3 Basic Constraints: critical
                CA:FALSE
            Authority Information Access: 
                CA Issuers - URI:http://secure.globalsign.com/cacert/gsrsaovsslca2018.crt
                OCSP - URI:http://ocsp.globalsign.com/gsrsaovsslca2018
            X509v3 Certificate Policies: 
                Policy: 1.3.6.1.4.1.4146.1.20
                  CPS: https://www.globalsign.com/repository/
                Policy: 2.23.140.1.2.2
            X509v3 CRL Distribution Points: 
                Full Name:
                  URI:http://crl.globalsign.com/gsrsaovsslca2018.crl

            X509v3 Subject Alternative Name: 
                DNS:*.vietcombank.com.vn, DNS:vietcombank.com.vn
            X509v3 Extended Key Usage: 
                TLS Web Server Authentication, TLS Web Client Authentication
            X509v3 Authority Key Identifier: 
                F8:EF:7F:F2:CD:78:67:A8:DE:6F:8F:24:8D:88:F1:87:03:02:B3:EB
            X509v3 Subject Key Identifier: 
                50:85:E3:63:6A:E7:7D:AC:BB:A7:CD:FD:17:DF:EA:8C:72:FD:2C:8C
            CT Precertificate SCTs: 
                Signed Certificate Timestamp:
                    Version   : v1 (0x0)
                    Log ID    : 94:4E:43:87:FA:EC:C1:EF:81:F3:19:24:26:A8:18:65:
                                01:C7:D3:5F:38:02:01:3F:72:67:7D:55:37:2E:19:D8
                    Timestamp : Oct 19 05:27:09.683 2025 GMT
                    Extensions: none
                    Signature : ecdsa-with-SHA256
                                30:46:02:21:00:EB:8C:B5:27:BD:2B:61:C6:71:FA:AA:
                                F2:B4:3A:B6:51:B8:68:27:11:C3:6D:9C:98:A0:4F:B8:
                                BA:C7:F9:9F:A8:02:21:00:87:7F:12:E0:9E:4D:FC:C2:
                                26:0B:F1:CA:BE:07:B9:8E:49:D2:86:8C:CA:68:3A:69:
                                AD:9B:3C:A8:36:CB:43:8E
                Signed Certificate Timestamp:
                    Version   : v1 (0x0)
                    Log ID    : D7:6D:7D:10:D1:A7:F5:77:C2:C7:E9:5F:D7:00:BF:F9:
                                82:C9:33:5A:65:E1:D0:B3:01:73:17:C0:C8:C5:69:77
                    Timestamp : Oct 19 05:27:09.827 2025 GMT
                    Extensions: none
                    Signature : ecdsa-with-SHA256
                                30:44:02:20:29:2A:75:61:FC:F8:21:05:6B:34:45:B6:
                                8B:02:0B:03:E0:F1:16:EF:C0:3C:7D:EF:46:1A:B2:7D:
                                D0:7A:FD:E7:02:20:76:F7:31:74:23:59:97:42:07:64:
                                82:B4:D2:C9:6C:2E:F5:B0:77:EB:F6:5E:3F:04:AE:00:
                                3B:B5:18:93:35:27
                Signed Certificate Timestamp:
                    Version   : v1 (0x0)
                    Log ID    : C2:31:7E:57:45:19:A3:45:EE:7F:38:DE:B2:90:41:EB:
                                C7:C2:21:5A:22:BF:7F:D5:B5:AD:76:9A:D9:0E:52:CD
                    Timestamp : Oct 19 05:27:09.689 2025 GMT
                    Extensions: none
                    Signature : ecdsa-with-SHA256
                                30:43:02:1F:70:D6:70:EF:26:9B:FC:B1:BB:73:F7:F0:
                                B2:17:82:D5:FE:DC:80:8D:68:14:AA:40:3F:E1:5C:98:
                                D5:85:BA:02:20:43:1B:34:87:84:C3:9D:2F:56:53:40:
                                2C:8A:5C:8A:54:2D:8C:66:FC:F1:9B:AC:14:A6:45:25:
                                B6:A9:CF:D3:06
    Signature Algorithm: sha256WithRSAEncryption
    Signature Value:
        20:bd:d4:06:67:bf:3d:23:f6:c8:70:f6:ab:db:9c:02:36:39:
        3f:71:b8:be:91:cb:b1:d3:a0:54:4b:02:e4:a3:7e:83:24:fa:
        26:75:ef:b3:d9:df:72:5a:25:29:38:17:4c:75:a3:4f:bb:72:
        0d:0a:2c:85:51:57:89:22:5d:a6:6c:fb:c7:d8:e6:87:59:18:
        32:12:bf:4e:bf:0b:5c:e0:7a:c5:07:83:99:d6:9b:45:ca:b4:
        ec:b7:a0:ef:86:68:19:f3:7b:9c:c7:97:c5:b3:44:38:03:0a:
        c9:18:69:b5:62:fa:48:2e:60:d3:02:3e:c2:f5:b4:26:bc:79:
        08:1e:f5:60:fa:5a:26:29:a9:39:ca:ab:fa:8d:af:b1:38:97:
        a4:28:a3:f2:07:18:1f:d2:49:50:62:a5:2e:d2:f1:45:b9:c9:
        92:39:10:4b:75:d4:6b:57:b2:77:96:51:c6:03:9c:d8:de:52:
        99:a4:ee:b8:52:59:21:b1:eb:22:75:dc:13:59:bc:86:df:3f:
        91:92:ac:67:3f:89:1e:3a:d9:46:19:d2:ba:e5:ee:df:bc:84:
        eb:7a:a2:67:2d:9f:f2:d3:a0:c9:8b:e8:cd:d8:8d:74:4d:6d:
        26:41:29:36:3f:4b:5e:5f:c1:c7:ce:e7:0a:e5:22:df:84:1a:
        2d:21:d5:db
-----BEGIN CERTIFICATE-----
MIIGyjCCBbKgAwIBAgIMOsjwngE0trsBlmjvMA0GCSqGSIb3DQEBCwUAMFAxCzAJ
BgNVBAYTAkJFMRkwFwYDVQQKExBHbG9iYWxTaWduIG52LXNhMSYwJAYDVQQDEx1H
bG9iYWxTaWduIFJTQSBPViBTU0wgQ0EgMjAxODAeFw0yNTEwMTkwNTI3MDVaFw0y
NjEwMjQwMjQ2MzJaMIGRMQswCQYDVQQGEwJWTjEPMA0GA1UECBMGSGEgTm9pMQ8w
DQYDVQQHEwZIYSBOb2kxQTA/BgNVBAoTOEpPSU5UIFNUT0NLIENPTU1FUkNJQUwg
QkFOSyBGT1IgRk9SRUlHTiBUUkFERSBPRiBWSUVUTkFNMR0wGwYDVQQDDBQqLnZp
ZXRjb21iYW5rLmNvbS52bjCCASIwDQYJKoZIhvcNAQEBBQADggEPADCCAQoCggEB
AJTBnW1p5j3pu9fDN0DqJ7er0rsO9AUyFchL8FLlY5jmueKESSiApmDQWRl/Vo7J
cEWP+dud29F2kCk85gH5Z1oXELteJqa+3ouJFGMFtEDITAfo6LlvVdKHjF/F0CXq
bJKmjqU+UfYyECGxdMc4pwit5aAAUFmGd1LJDce/U9N8rWJ328JHnqAg52Mi0UpK
+fOAvY/CwuAReDDqh6yXSzQSM2HApXYMWYEDBgpzhoK7lloXbLIDeVG1UQVBuISL
svYAigHKkuK+rn78hjNeQvJ3/rAaMJ3CzlJM1diY6/aT9CA51bDm/Oz8mCF6wvbF
FhlF86rl05URnB8HaB+hPVMCAwEAAaOCA2AwggNcMA4GA1UdDwEB/wQEAwIFoDAM
BgNVHRMBAf8EAjAAMIGOBggrBgEFBQcBAQSBgTB/MEQGCCsGAQUFBzAChjhodHRw
Oi8vc2VjdXJlLmdsb2JhbHNpZ24uY29tL2NhY2VydC9nc3JzYW92c3NsY2EyMDE4
LmNydDA3BggrBgEFBQcwAYYraHR0cDovL29jc3AuZ2xvYmFsc2lnbi5jb20vZ3Ny
c2FvdnNzbGNhMjAxODBWBgNVHSAETzBNMEEGCSsGAQQBoDIBFDA0MDIGCCsGAQUF
BwIBFiZodHRwczovL3d3dy5nbG9iYWxzaWduLmNvbS9yZXBvc2l0b3J5LzAIBgZn
gQwBAgIwPwYDVR0fBDgwNjA0oDKgMIYuaHR0cDovL2NybC5nbG9iYWxzaWduLmNv
bS9nc3JzYW92c3NsY2EyMDE4LmNybDAzBgNVHREELDAqghQqLnZpZXRjb21iYW5r
LmNvbS52boISdmlldGNvbWJhbmsuY29tLnZuMB0GA1UdJQQWMBQGCCsGAQUFBwMB
BggrBgEFBQcDAjAfBgNVHSMEGDAWgBT473/yzXhnqN5vjySNiPGHAwKz6zAdBgNV
HQ4EFgQUUIXjY2rnfay7p839F9/qjHL9LIwwggF8BgorBgEEAdZ5AgQCBIIBbASC
AWgBZgB3AJROQ4f67MHvgfMZJCaoGGUBx9NfOAIBP3JnfVU3LhnYAAABmfrvlnMA
AAQDAEgwRgIhAOuMtSe9K2HGcfqq8rQ6tlG4aCcRw22cmKBPuLrH+Z+oAiEAh38S
4J5N/MImC/HKvge5jknShozKaDpprZs8qDbLQ44AdQDXbX0Q0af1d8LH6V/XAL/5
gskzWmXh0LMBcxfAyMVpdwAAAZn675cDAAAEAwBGMEQCICkqdWH8+CEFazRFtosC
CwPg8RbvwDx970Yasn3Qev3nAiB29zF0I1mXQgdkgrTSyWwu9bB36/ZePwSuADu1
GJM1JwB0AMIxfldFGaNF7n843rKQQevHwiFaIr9/1bWtdprZDlLNAAABmfrvlnkA
AAQDAEUwQwIfcNZw7yab/LG7c/fwsheC1f7cgI1oFKpAP+FcmNWFugIgQxs0h4TD
nS9WU0AsilyKVC2MZvzxm6wUpkUltqnP0wYwDQYJKoZIhvcNAQELBQADggEBACC9
1AZnvz0j9shw9qvbnAI2OT9xuL6Ry7HToFRLAuSjfoMk+iZ177PZ33JaJSk4F0x1
o0+7cg0KLIVRV4kiXaZs+8fY5odZGDISv06/C1zgesUHg5nWm0XKtOy3oO+GaBnz
e5zHl8WzRDgDCskYabVi+kguYNMCPsL1tCa8eQge9WD6WiYpqTnKq/qNr7E4l6Qo
o/IHGB/SSVBipS7S8UW5yZI5EEt11GtXsneWUcYDnNjeUpmk7rhSWSGx6yJ13BNZ
vIbfP5GSrGc/iR462UYZ0rrl7t+8hOt6omctn/LToMmL6M3YjXRNbSZBKTY/S15f
wcfO5wrlIt+EGi0h1ds=
-----END CERTIFICATE-----
